; Function Attrs: mustprogress nounwind uwtable
define void @_ZN6icu_779SpoofImplD2Ev(ptr noundef nonnull align 8 dereferenceable(44) initializes((0, 8)) %0) unnamed_addr #6 align 2 personality ptr @__gxx_personality_v0 {
  store ptr getelementptr inbounds nuw inrange(-16, 24) (i8, ptr @_ZTVN6icu_779SpoofImplE, i64 16), ptr %0, align 8, !tbaa !8
  %2 = getelementptr inbounds nuw i8, ptr %0, i64 16
  %3 = load ptr, ptr %2, align 8, !tbaa !23
  %.not = icmp eq ptr %3, null
  br i1 %.not, label %_ZN6icu_779SpoofData15removeReferenceEv.exit, label %4

4:                                                ; preds = %1
  %5 = getelementptr inbounds nuw i8, ptr %3, i64 28
  %6 = atomicrmw sub ptr %5, i32 1 seq_cst, align 4
  %.not.i = icmp eq i32 %6, 1
  br i1 %.not.i, label %7, label %_ZN6icu_779SpoofData15removeReferenceEv.exit

7:                                                ; preds = %4
  tail call void @_ZN6icu_779SpoofDataD1Ev(ptr noundef nonnull align 8 dereferenceable(56) %3) #21
  tail call void @_ZN6icu_777UMemorydlEPv(ptr noundef nonnull align 8 dereferenceable(56) %3) #21
  br label %_ZN6icu_779SpoofData15removeReferenceEv.exit

_ZN6icu_779SpoofData15removeReferenceEv.exit:     ; preds = %7, %4, %1
  %8 = getelementptr inbounds nuw i8, ptr %0, i64 24
  %9 = load ptr, ptr %8, align 8, !tbaa !21
  %10 = icmp eq ptr %9, null
  br i1 %10, label %12, label %11

11:                                               ; preds = %_ZN6icu_779SpoofData15removeReferenceEv.exit
  tail call void @_ZN6icu_7710UnicodeSetD1Ev(ptr noundef nonnull align 8 dereferenceable(200) %9) #21
  tail call void @_ZN6icu_777UMemorydlEPv(ptr noundef nonnull %9) #21
  br label %12

12:                                               ; preds = %11, %_ZN6icu_779SpoofData15removeReferenceEv.exit
  %13 = getelementptr inbounds nuw i8, ptr %0, i64 32
  %14 = load ptr, ptr %13, align 8, !tbaa !22
  invoke void @uprv_free_77(ptr noundef %14)
          to label %15 unwind label %17

15:                                               ; preds = %12
  %16 = getelementptr inbounds nuw i8, ptr %0, i64 8
  store i32 0, ptr %16, align 8, !tbaa !3
  tail call void @_ZN6icu_777UObjectD2Ev(ptr noundef nonnull align 8 dereferenceable(8) %0) #21
  ret void

17:                                               ; preds = %12
  %18 = landingpad { ptr, i32 }
          catch ptr null
  %19 = extractvalue { ptr, i32 } %18, 0
  tail call void @__clang_call_terminate(ptr %19) #22
  unreachable
}